target datalayout = "e-m:e-p270:32:32-p271:32:32-p272:64:64-i64:64-i128:128-f80:128-n8:16:32:64-S128"
target triple = "x86_64-pc-linux-gnu"

%struct._address = type { i32, i32, ptr, ptr }
%struct._packet_info = type { ptr, ptr, i32, i32, %struct.nstime_t, %struct.nstime_t, %struct.nstime_t, i8, ptr, ptr, ptr, ptr, %struct._address, %struct._address, %struct._address, %struct._address, %struct._address, %struct._address, i32, ptr, i8, [3 x i8], %struct.anon, i32, i32, i32, i32, ptr, i8, ptr, ptr, i16, i16, i32, i32, i16, i32, i32, ptr, ptr, ptr, i8, i8, i16, i16, i16, i32, i16, i16, ptr, ptr, ptr, ptr, ptr, i32, i32 }
%struct.nstime_t = type { i64, i32 }
%struct.anon = type { i8, [3 x i8] }

@.str.595 = private unnamed_addr constant [16 x i8] c"CI+ SAC message\00", align 1
@.str.1006 = private unnamed_addr constant [8 x i8] c"unknown\00", align 1

; Function Attrs: null_pointer_is_valid sspstrong uwtable
define internal i32 @dissect_dvbci_exported_sac_msg(ptr noundef %0, ptr noundef %1, ptr noundef %2, ptr noundef %3) #0 {
  %5 = alloca i32, align 4
  %6 = alloca ptr, align 8
  %7 = alloca ptr, align 8
  %8 = alloca ptr, align 8
  %9 = alloca ptr, align 8
  %10 = alloca i8, align 1
  %11 = alloca i32, align 4
  %12 = alloca i32, align 4
  store ptr %0, ptr %6, align 8
  store ptr %1, ptr %7, align 8
  store ptr %2, ptr %8, align 8
  store ptr %3, ptr %9, align 8
  call void @llvm.lifetime.start.p0(i64 1, ptr %10) #11
  call void @llvm.lifetime.start.p0(i64 4, ptr %11) #11
  %13 = load ptr, ptr %7, align 8
  %14 = call zeroext i8 @dvbci_get_evt_from_addrs(ptr noundef %13)
  store i8 %14, ptr %10, align 1
  %15 = load i8, ptr %10, align 1
  %16 = zext i8 %15 to i32
  %17 = icmp eq i32 %16, 255
  br i1 %17, label %23, label %18

18:                                               ; preds = %4
  %19 = load i8, ptr %10, align 1
  %20 = zext i8 %19 to i32
  %21 = icmp eq i32 %20, 254
  br i1 %21, label %23, label %22

22:                                               ; preds = %18
  store i32 0, ptr %5, align 4
  store i32 1, ptr %12, align 4
  br label %47

23:                                               ; preds = %18, %4
  %24 = load ptr, ptr %7, align 8
  %25 = getelementptr inbounds nuw %struct._packet_info, ptr %24, i32 0, i32 1
  %26 = load ptr, ptr %25, align 8
  call void @col_append_sep_str(ptr noundef %26, i32 noundef 35, ptr noundef null, ptr noundef @.str.595)
  %27 = load ptr, ptr %7, align 8
  %28 = getelementptr inbounds nuw %struct._packet_info, ptr %27, i32 0, i32 1
  %29 = load ptr, ptr %28, align 8
  call void @col_clear(ptr noundef %29, i32 noundef 25)
  %30 = load i8, ptr %10, align 1
  %31 = zext i8 %30 to i32
  %32 = icmp eq i32 %31, 255
  br i1 %32, label %33, label %34

33:                                               ; preds = %23
  store i32 10457095, ptr %11, align 4
  br label %35

34:                                               ; preds = %23
  store i32 10457096, ptr %11, align 4
  br label %35

35:                                               ; preds = %34, %33
  %36 = load ptr, ptr %7, align 8
  %37 = getelementptr inbounds nuw %struct._packet_info, ptr %36, i32 0, i32 1
  %38 = load ptr, ptr %37, align 8
  %39 = load i32, ptr %11, align 4
  %40 = call ptr @val_to_str_const(i32 noundef %39, ptr noundef @dvbci_apdu_tag, ptr noundef @.str.1006)
  call void @col_append_sep_str(ptr noundef %38, i32 noundef 25, ptr noundef null, ptr noundef %40)
  %41 = load i32, ptr %11, align 4
  %42 = load ptr, ptr %6, align 8
  %43 = load ptr, ptr %7, align 8
  %44 = load ptr, ptr %8, align 8
  call void @dissect_sac_msg(i32 noundef %41, ptr noundef %42, i32 noundef 0, ptr noundef %43, ptr noundef %44, i1 noundef zeroext true)
  %45 = load ptr, ptr %6, align 8
  %46 = call i32 @tvb_reported_length(ptr noundef %45)
  store i32 %46, ptr %5, align 4
  store i32 1, ptr %12, align 4
  br label %47

47:                                               ; preds = %35, %22
  call void @llvm.lifetime.end.p0(i64 4, ptr %11) #11
  call void @llvm.lifetime.end.p0(i64 1, ptr %10) #11
  %48 = load i32, ptr %5, align 4
  ret i32 %48
}