; Function Attrs: null_pointer_is_valid sspstrong uwtable
define internal i32 @dissect_dvbci_exported_sac_msg(ptr noundef %0, ptr noundef %1, ptr noundef %2, ptr readnone captures(none) %3) #1 {
  %5 = tail call fastcc zeroext i8 @dvbci_get_evt_from_addrs(ptr noundef %1)
  %or.cond = icmp ugt i8 %5, -3
  br i1 %or.cond, label %6, label %14

6:                                                ; preds = %4
  %7 = icmp eq i8 %5, -1
  %8 = getelementptr inbounds nuw i8, ptr %1, i64 8
  %9 = load ptr, ptr %8, align 8
  tail call void @col_append_sep_str(ptr noundef %9, i32 noundef 35, ptr noundef null, ptr noundef nonnull @.str.595)
  %10 = load ptr, ptr %8, align 8
  tail call void @col_clear(ptr noundef %10, i32 noundef 25)
  %. = select i1 %7, i32 10457095, i32 10457096
  %11 = load ptr, ptr %8, align 8
  %12 = tail call ptr @val_to_str_const(i32 noundef %., ptr noundef nonnull @dvbci_apdu_tag, ptr noundef nonnull @.str.1006)
  tail call void @col_append_sep_str(ptr noundef %11, i32 noundef 25, ptr noundef null, ptr noundef %12)
  tail call fastcc void @dissect_sac_msg(i32 noundef %., ptr noundef %0, i32 noundef 0, ptr noundef %1, ptr noundef %2, i1 noundef zeroext true)
  %13 = tail call i32 @tvb_reported_length(ptr noundef %0)
  br label %14

14:                                               ; preds = %4, %6
  %.015 = phi i32 [ %13, %6 ], [ 0, %4 ]
  ret i32 %.015
}